; Function Attrs: inlinehint mustprogress nounwind uwtable
define internal fastcc void @_ZN7testing13TestParamInfoIN4absl12log_internal12_GLOBAL__N_123StructuredProtoTestCaseEED2Ev(ptr noundef nonnull readonly align 8 captures(address) dereferenceable(96) %0) unnamed_addr #8 align 2 personality ptr @__gxx_personality_v0 {
  %2 = getelementptr inbounds nuw i8, ptr %0, i64 64
  %3 = load ptr, ptr %2, align 8, !tbaa !44
  %.not.i.i.i.i = icmp eq ptr %3, null
  br i1 %.not.i.i.i.i, label %_ZNSt6vectorIcSaIcEED2Ev.exit.i, label %4

4:                                                ; preds = %1
  %5 = getelementptr inbounds nuw i8, ptr %0, i64 80
  %6 = load ptr, ptr %5, align 8, !tbaa !46
  %7 = ptrtoint ptr %6 to i64
  %8 = ptrtoint ptr %3 to i64
  %9 = sub i64 %7, %8
  tail call void @_ZdlPvm(ptr noundef nonnull %3, i64 noundef %9) #32
  br label %_ZNSt6vectorIcSaIcEED2Ev.exit.i

_ZNSt6vectorIcSaIcEED2Ev.exit.i:                  ; preds = %4, %1
  %10 = load ptr, ptr %0, align 8, !tbaa !20
  %11 = getelementptr inbounds nuw i8, ptr %0, i64 16
  %12 = icmp eq ptr %10, %11
  br i1 %12, label %_ZNKSt7__cxx1112basic_stringIcSt11char_traitsIcESaIcEE11_M_is_localEv.exit.thread.i.i.i, label %_ZNKSt7__cxx1112basic_stringIcSt11char_traitsIcESaIcEE11_M_is_localEv.exit.i.i.i

_ZNKSt7__cxx1112basic_stringIcSt11char_traitsIcESaIcEE11_M_is_localEv.exit.thread.i.i.i: ; preds = %_ZNSt6vectorIcSaIcEED2Ev.exit.i
  %13 = getelementptr inbounds nuw i8, ptr %0, i64 8
  %14 = load i64, ptr %13, align 8, !tbaa !22
  %15 = icmp ult i64 %14, 16
  tail call void @llvm.assume(i1 %15)
  br label %_ZN4absl12log_internal12_GLOBAL__N_123StructuredProtoTestCaseD2Ev.exit

_ZNKSt7__cxx1112basic_stringIcSt11char_traitsIcESaIcEE11_M_is_localEv.exit.i.i.i: ; preds = %_ZNSt6vectorIcSaIcEED2Ev.exit.i
  %16 = load i64, ptr %11, align 8, !tbaa !24
  %17 = add i64 %16, 1
  tail call void @_ZdlPvm(ptr noundef %10, i64 noundef %17) #32
  br label %_ZN4absl12log_internal12_GLOBAL__N_123StructuredProtoTestCaseD2Ev.exit

_ZN4absl12log_internal12_GLOBAL__N_123StructuredProtoTestCaseD2Ev.exit: ; preds = %_ZNKSt7__cxx1112basic_stringIcSt11char_traitsIcESaIcEE11_M_is_localEv.exit.thread.i.i.i, %_ZNKSt7__cxx1112basic_stringIcSt11char_traitsIcESaIcEE11_M_is_localEv.exit.i.i.i
  ret void
}